target datalayout = "e-m:e-p270:32:32-p271:32:32-p272:64:64-i64:64-i128:128-f80:128-n8:16:32:64-S128"
target triple = "x86_64-pc-linux-gnu"

%"class.cv::Mat" = type { i32, i32, i32, i32, ptr, ptr, ptr, ptr, ptr, ptr, %"struct.cv::MatSize", %"struct.cv::MatStep" }
%"struct.cv::MatSize" = type { ptr }
%"struct.cv::MatStep" = type { ptr, [2 x i64] }
%"struct.std::_Vector_base.15" = type { %"struct.std::_Vector_base<cv::Point_<float>, std::allocator<cv::Point_<float>>>::_Vector_impl" }
%"struct.std::_Vector_base<cv::Point_<float>, std::allocator<cv::Point_<float>>>::_Vector_impl" = type { %"struct.std::_Vector_base<cv::Point_<float>, std::allocator<cv::Point_<float>>>::_Vector_impl_data" }
%"struct.std::_Vector_base<cv::Point_<float>, std::allocator<cv::Point_<float>>>::_Vector_impl_data" = type { ptr, ptr, ptr }
%"class.cv::Point_" = type { float, float }

; Function Attrs: inlinehint mustprogress nounwind uwtable
define linkonce_odr hidden noundef nonnull align 4 dereferenceable(4) ptr @_ZN2cv3Mat2atIfEERT_ii(ptr noundef nonnull align 8 dereferenceable(96) %0, i32 noundef %1, i32 noundef %2) #8 comdat align 2 {
  %4 = alloca ptr, align 8
  %5 = alloca i32, align 4
  %6 = alloca i32, align 4
  store ptr %0, ptr %4, align 8, !tbaa !76
  store i32 %1, ptr %5, align 4, !tbaa !4
  store i32 %2, ptr %6, align 4, !tbaa !4
  %7 = load ptr, ptr %4, align 8
  %8 = getelementptr inbounds nuw %"class.cv::Mat", ptr %7, i32 0, i32 4
  %9 = load ptr, ptr %8, align 8, !tbaa !30
  %10 = getelementptr inbounds nuw %"class.cv::Mat", ptr %7, i32 0, i32 11
  %11 = getelementptr inbounds nuw %"struct.cv::MatStep", ptr %10, i32 0, i32 0
  %12 = load ptr, ptr %11, align 8, !tbaa !142
  %13 = getelementptr inbounds i64, ptr %12, i64 0
  %14 = load i64, ptr %13, align 8, !tbaa !140
  %15 = load i32, ptr %5, align 4, !tbaa !4
  %16 = sext i32 %15 to i64
  %17 = mul i64 %14, %16
  %18 = getelementptr inbounds nuw i8, ptr %9, i64 %17
  %19 = load i32, ptr %6, align 4, !tbaa !4
  %20 = sext i32 %19 to i64
  %21 = getelementptr inbounds float, ptr %18, i64 %20
  ret ptr %21
}

; Function Attrs: mustprogress nounwind uwtable
define linkonce_odr hidden noundef nonnull align 4 dereferenceable(8) ptr @_ZNSt6vectorIN2cv6Point_IfEESaIS2_EEixEm(ptr noundef nonnull align 8 dereferenceable(24) %0, i64 noundef %1) #6 comdat align 2 {
  %3 = alloca ptr, align 8
  %4 = alloca i64, align 8
  store ptr %0, ptr %3, align 8, !tbaa !48
  store i64 %1, ptr %4, align 8, !tbaa !140
  %5 = load ptr, ptr %3, align 8
  %6 = getelementptr inbounds nuw %"struct.std::_Vector_base.15", ptr %5, i32 0, i32 0
  %7 = getelementptr inbounds nuw %"struct.std::_Vector_base<cv::Point_<float>, std::allocator<cv::Point_<float>>>::_Vector_impl_data", ptr %6, i32 0, i32 0
  %8 = load ptr, ptr %7, align 8, !tbaa !103
  %9 = load i64, ptr %4, align 8, !tbaa !140
  %10 = getelementptr inbounds nuw %"class.cv::Point_", ptr %8, i64 %9
  ret ptr %10
}

; Function Attrs: mustprogress nounwind uwtable
define linkonce_odr hidden noundef i64 @_ZNKSt6vectorIN2cv6Point_IfEESaIS2_EE4sizeEv(ptr noundef nonnull align 8 dereferenceable(24) %0) #6 comdat align 2 {
  %2 = alloca ptr, align 8
  store ptr %0, ptr %2, align 8, !tbaa !48
  %3 = load ptr, ptr %2, align 8
  %4 = getelementptr inbounds nuw %"struct.std::_Vector_base.15", ptr %3, i32 0, i32 0
  %5 = getelementptr inbounds nuw %"struct.std::_Vector_base<cv::Point_<float>, std::allocator<cv::Point_<float>>>::_Vector_impl_data", ptr %4, i32 0, i32 1
  %6 = load ptr, ptr %5, align 8, !tbaa !106
  %7 = getelementptr inbounds nuw %"struct.std::_Vector_base.15", ptr %3, i32 0, i32 0
  %8 = getelementptr inbounds nuw %"struct.std::_Vector_base<cv::Point_<float>, std::allocator<cv::Point_<float>>>::_Vector_impl_data", ptr %7, i32 0, i32 0
  %9 = load ptr, ptr %8, align 8, !tbaa !103
  %10 = ptrtoint ptr %6 to i64
  %11 = ptrtoint ptr %9 to i64
  %12 = sub i64 %10, %11
  %13 = sdiv exact i64 %12, 8
  ret i64 %13
}

; Function Attrs: mustprogress uwtable
define hidden void @_Z15fromVectorToMatSt6vectorIN2cv6Point_IfEESaIS2_EERNS0_3MatE(ptr noundef %0, ptr noundef nonnull align 8 dereferenceable(96) %1) #7 {
  %3 = alloca ptr, align 8
  %4 = alloca ptr, align 8
  %5 = alloca i32, align 4
  %6 = alloca i32, align 4
  store ptr %0, ptr %3, align 8, !tbaa !48
  store ptr %1, ptr %4, align 8, !tbaa !76
  call void @llvm.lifetime.start.p0(i64 4, ptr %5) #3
  %7 = call noundef i64 @_ZNKSt6vectorIN2cv6Point_IfEESaIS2_EE4sizeEv(ptr noundef nonnull align 8 dereferenceable(24) %0) #3
  %8 = trunc i64 %7 to i32
  store i32 %8, ptr %5, align 4, !tbaa !4
  %9 = load ptr, ptr %4, align 8, !tbaa !76
  %10 = call noundef zeroext i1 @_ZNK2cv3Mat5emptyEv(ptr noundef nonnull align 8 dereferenceable(96) %9)
  br i1 %10, label %11, label %14

11:                                               ; preds = %2
  %12 = load ptr, ptr %4, align 8, !tbaa !76
  %13 = load i32, ptr %5, align 4, !tbaa !4
  call void @_ZN2cv3Mat6createEiii(ptr noundef nonnull align 8 dereferenceable(96) %12, i32 noundef 2, i32 noundef %13, i32 noundef 5)
  br label %14

14:                                               ; preds = %11, %2
  call void @llvm.lifetime.start.p0(i64 4, ptr %6) #3
  store i32 0, ptr %6, align 4, !tbaa !4
  br label %15

15:                                               ; preds = %37, %14
  %16 = load i32, ptr %6, align 4, !tbaa !4
  %17 = load i32, ptr %5, align 4, !tbaa !4
  %18 = icmp slt i32 %16, %17
  br i1 %18, label %20, label %19

19:                                               ; preds = %15
  call void @llvm.lifetime.end.p0(i64 4, ptr %6) #3
  br label %40

20:                                               ; preds = %15
  %21 = load i32, ptr %6, align 4, !tbaa !4
  %22 = sext i32 %21 to i64
  %23 = call noundef nonnull align 4 dereferenceable(8) ptr @_ZNSt6vectorIN2cv6Point_IfEESaIS2_EEixEm(ptr noundef nonnull align 8 dereferenceable(24) %0, i64 noundef %22) #3
  %24 = getelementptr inbounds nuw %"class.cv::Point_", ptr %23, i32 0, i32 0
  %25 = load float, ptr %24, align 4, !tbaa !99
  %26 = load ptr, ptr %4, align 8, !tbaa !76
  %27 = load i32, ptr %6, align 4, !tbaa !4
  %28 = call noundef nonnull align 4 dereferenceable(4) ptr @_ZN2cv3Mat2atIfEERT_ii(ptr noundef nonnull align 8 dereferenceable(96) %26, i32 noundef 0, i32 noundef %27)
  store float %25, ptr %28, align 4, !tbaa !64
  %29 = load i32, ptr %6, align 4, !tbaa !4
  %30 = sext i32 %29 to i64
  %31 = call noundef nonnull align 4 dereferenceable(8) ptr @_ZNSt6vectorIN2cv6Point_IfEESaIS2_EEixEm(ptr noundef nonnull align 8 dereferenceable(24) %0, i64 noundef %30) #3
  %32 = getelementptr inbounds nuw %"class.cv::Point_", ptr %31, i32 0, i32 1
  %33 = load float, ptr %32, align 4, !tbaa !101
  %34 = load ptr, ptr %4, align 8, !tbaa !76
  %35 = load i32, ptr %6, align 4, !tbaa !4
  %36 = call noundef nonnull align 4 dereferenceable(4) ptr @_ZN2cv3Mat2atIfEERT_ii(ptr noundef nonnull align 8 dereferenceable(96) %34, i32 noundef 1, i32 noundef %35)
  store float %33, ptr %36, align 4, !tbaa !64
  br label %37

37:                                               ; preds = %20
  %38 = load i32, ptr %6, align 4, !tbaa !4
  %39 = add nsw i32 %38, 1
  store i32 %39, ptr %6, align 4, !tbaa !4
  br label %15, !llvm.loop !102

40:                                               ; preds = %19
  call void @llvm.lifetime.end.p0(i64 4, ptr %5) #3
  ret void
}