; Function Attrs: mustprogress uwtable
define hidden void @_Z15fromVectorToMatSt6vectorIN2cv6Point_IfEESaIS2_EERNS0_3MatE(ptr noundef readonly captures(none) %0, ptr noundef nonnull align 8 dereferenceable(96) %1) local_unnamed_addr #5 {
  %3 = getelementptr inbounds nuw i8, ptr %0, i64 8
  %4 = load ptr, ptr %3, align 8, !tbaa !76
  %5 = load ptr, ptr %0, align 8, !tbaa !79
  %6 = ptrtoint ptr %4 to i64
  %7 = ptrtoint ptr %5 to i64
  %8 = sub i64 %6, %7
  %9 = lshr i64 %8, 3
  %10 = trunc i64 %9 to i32
  %11 = tail call noundef zeroext i1 @_ZNK2cv3Mat5emptyEv(ptr noundef nonnull align 8 dereferenceable(96) %1)
  br i1 %11, label %12, label %13

12:                                               ; preds = %2
  tail call void @_ZN2cv3Mat6createEiii(ptr noundef nonnull align 8 dereferenceable(96) %1, i32 noundef 2, i32 noundef %10, i32 noundef 5)
  br label %13

13:                                               ; preds = %12, %2
  %14 = icmp sgt i32 %10, 0
  br i1 %14, label %.lr.ph, label %._crit_edge

.lr.ph:                                           ; preds = %13
  %15 = load ptr, ptr %0, align 8, !tbaa !79
  %16 = getelementptr inbounds nuw i8, ptr %1, i64 16
  %17 = load ptr, ptr %16, align 8, !tbaa !64
  %18 = getelementptr inbounds nuw i8, ptr %1, i64 72
  %19 = load ptr, ptr %18, align 8, !tbaa !102
  %20 = load i64, ptr %19, align 8, !tbaa !16
  %21 = getelementptr inbounds nuw i8, ptr %17, i64 %20
  %wide.trip.count = and i64 %9, 2147483647
  br label %22

._crit_edge:                                      ; preds = %22, %13
  ret void

22:                                               ; preds = %.lr.ph, %22
  %indvars.iv = phi i64 [ 0, %.lr.ph ], [ %indvars.iv.next, %22 ]
  %23 = getelementptr inbounds nuw %"class.cv::Point_", ptr %15, i64 %indvars.iv
  %24 = load float, ptr %23, align 4, !tbaa !103
  %25 = getelementptr inbounds nuw float, ptr %17, i64 %indvars.iv
  store float %24, ptr %25, align 4, !tbaa !96
  %26 = getelementptr inbounds nuw i8, ptr %23, i64 4
  %27 = load float, ptr %26, align 4, !tbaa !105
  %28 = getelementptr inbounds nuw float, ptr %21, i64 %indvars.iv
  store float %27, ptr %28, align 4, !tbaa !96
  %indvars.iv.next = add nuw nsw i64 %indvars.iv, 1
  %exitcond.not = icmp eq i64 %indvars.iv.next, %wide.trip.count
  br i1 %exitcond.not, label %._crit_edge, label %22, !llvm.loop !106
}